target datalayout = "e-m:e-p270:32:32-p271:32:32-p272:64:64-i64:64-i128:128-f80:128-n8:16:32:64-S128"
target triple = "x86_64-pc-linux-gnu"

%struct._lv_arc_t = type { %struct._lv_obj_t, i32, float, float, float, float, i32, i32, i32, i8, i32, i32, float, i16 }
%struct._lv_obj_t = type { ptr, ptr, ptr, ptr, ptr, %struct.lv_area_t, i32, i16, i16 }
%struct.lv_area_t = type { i32, i32, i32, i32 }

; Function Attrs: nounwind uwtable
define void @lv_arc_set_bg_end_angle(ptr noundef %0, float noundef %1) #0 {
  %3 = alloca ptr, align 8
  %4 = alloca float, align 4
  %5 = alloca ptr, align 8
  %6 = alloca float, align 4
  %7 = alloca float, align 4
  store ptr %0, ptr %3, align 8, !tbaa !8
  store float %1, ptr %4, align 4, !tbaa !39
  br label %8

8:                                                ; preds = %2
  %9 = load ptr, ptr %3, align 8, !tbaa !8
  %10 = icmp ne ptr %9, null
  br i1 %10, label %15, label %11

11:                                               ; preds = %8
  br label %12

12:                                               ; preds = %11
  br label %13

13:                                               ; preds = %12
  br label %14

14:                                               ; preds = %13, %14
  br label %14

15:                                               ; preds = %8
  br label %16

16:                                               ; preds = %15
  call void @llvm.lifetime.start.p0(i64 8, ptr %5) #5
  %17 = load ptr, ptr %3, align 8, !tbaa !8
  store ptr %17, ptr %5, align 8, !tbaa !10
  %18 = load float, ptr %4, align 4, !tbaa !39
  %19 = fcmp ogt float %18, 3.600000e+02
  br i1 %19, label %20, label %23

20:                                               ; preds = %16
  %21 = load float, ptr %4, align 4, !tbaa !39
  %22 = fsub float %21, 3.600000e+02
  store float %22, ptr %4, align 4, !tbaa !39
  br label %23

23:                                               ; preds = %20, %16
  call void @llvm.lifetime.start.p0(i64 4, ptr %6) #5
  %24 = load ptr, ptr %5, align 8, !tbaa !10
  %25 = getelementptr inbounds nuw %struct._lv_arc_t, ptr %24, i32 0, i32 5
  %26 = load float, ptr %25, align 8, !tbaa !22
  %27 = load ptr, ptr %5, align 8, !tbaa !10
  %28 = getelementptr inbounds nuw %struct._lv_arc_t, ptr %27, i32 0, i32 4
  %29 = load float, ptr %28, align 4, !tbaa !21
  %30 = fsub float %26, %29
  store float %30, ptr %6, align 4, !tbaa !39
  call void @llvm.lifetime.start.p0(i64 4, ptr %7) #5
  %31 = load float, ptr %4, align 4, !tbaa !39
  %32 = load ptr, ptr %5, align 8, !tbaa !10
  %33 = getelementptr inbounds nuw %struct._lv_arc_t, ptr %32, i32 0, i32 4
  %34 = load float, ptr %33, align 4, !tbaa !21
  %35 = fsub float %31, %34
  store float %35, ptr %7, align 4, !tbaa !39
  %36 = load float, ptr %6, align 4, !tbaa !39
  %37 = fcmp olt float %36, 0.000000e+00
  br i1 %37, label %38, label %41

38:                                               ; preds = %23
  %39 = load float, ptr %6, align 4, !tbaa !39
  %40 = fadd float 3.600000e+02, %39
  store float %40, ptr %6, align 4, !tbaa !39
  br label %41

41:                                               ; preds = %38, %23
  %42 = load float, ptr %7, align 4, !tbaa !39
  %43 = fcmp olt float %42, 0.000000e+00
  br i1 %43, label %44, label %47

44:                                               ; preds = %41
  %45 = load float, ptr %7, align 4, !tbaa !39
  %46 = fadd float 3.600000e+02, %45
  store float %46, ptr %7, align 4, !tbaa !39
  br label %47

47:                                               ; preds = %44, %41
  %48 = load float, ptr %7, align 4, !tbaa !39
  %49 = load float, ptr %6, align 4, !tbaa !39
  %50 = fsub float %48, %49
  %51 = fcmp ogt float %50, 0.000000e+00
  br i1 %51, label %52, label %56

52:                                               ; preds = %47
  %53 = load float, ptr %7, align 4, !tbaa !39
  %54 = load float, ptr %6, align 4, !tbaa !39
  %55 = fsub float %53, %54
  br label %61

56:                                               ; preds = %47
  %57 = load float, ptr %7, align 4, !tbaa !39
  %58 = load float, ptr %6, align 4, !tbaa !39
  %59 = fsub float %57, %58
  %60 = fneg float %59
  br label %61

61:                                               ; preds = %56, %52
  %62 = phi float [ %55, %52 ], [ %60, %56 ]
  %63 = fcmp ogt float %62, 1.800000e+02
  br i1 %63, label %64, label %66

64:                                               ; preds = %61
  %65 = load ptr, ptr %3, align 8, !tbaa !8
  call void @lv_obj_invalidate(ptr noundef %65)
  br label %88

66:                                               ; preds = %61
  %67 = load float, ptr %7, align 4, !tbaa !39
  %68 = load float, ptr %6, align 4, !tbaa !39
  %69 = fcmp olt float %67, %68
  br i1 %69, label %70, label %76

70:                                               ; preds = %66
  %71 = load ptr, ptr %3, align 8, !tbaa !8
  %72 = load float, ptr %4, align 4, !tbaa !39
  %73 = load ptr, ptr %5, align 8, !tbaa !10
  %74 = getelementptr inbounds nuw %struct._lv_arc_t, ptr %73, i32 0, i32 5
  %75 = load float, ptr %74, align 8, !tbaa !22
  call void @inv_arc_area(ptr noundef %71, float noundef %72, float noundef %75, i32 noundef 0)
  br label %87

76:                                               ; preds = %66
  %77 = load float, ptr %6, align 4, !tbaa !39
  %78 = load float, ptr %7, align 4, !tbaa !39
  %79 = fcmp olt float %77, %78
  br i1 %79, label %80, label %86

80:                                               ; preds = %76
  %81 = load ptr, ptr %3, align 8, !tbaa !8
  %82 = load ptr, ptr %5, align 8, !tbaa !10
  %83 = getelementptr inbounds nuw %struct._lv_arc_t, ptr %82, i32 0, i32 5
  %84 = load float, ptr %83, align 8, !tbaa !22
  %85 = load float, ptr %4, align 4, !tbaa !39
  call void @inv_arc_area(ptr noundef %81, float noundef %84, float noundef %85, i32 noundef 0)
  br label %86

86:                                               ; preds = %80, %76
  br label %87

87:                                               ; preds = %86, %70
  br label %88

88:                                               ; preds = %87, %64
  %89 = load float, ptr %4, align 4, !tbaa !39
  %90 = load ptr, ptr %5, align 8, !tbaa !10
  %91 = getelementptr inbounds nuw %struct._lv_arc_t, ptr %90, i32 0, i32 5
  store float %89, ptr %91, align 8, !tbaa !22
  %92 = load ptr, ptr %3, align 8, !tbaa !8
  call void @value_update(ptr noundef %92)
  call void @llvm.lifetime.end.p0(i64 4, ptr %7) #5
  call void @llvm.lifetime.end.p0(i64 4, ptr %6) #5
  call void @llvm.lifetime.end.p0(i64 8, ptr %5) #5
  ret void
}